target datalayout = "e-m:e-p270:32:32-p271:32:32-p272:64:64-i64:64-i128:128-f80:128-n8:16:32:64-S128"
target triple = "x86_64-pc-linux-gnu"

; Function Attrs: nounwind uwtable
define internal i32 @point_cmp(ptr noundef %0, ptr noundef %1, ptr noundef %2) #0 {
  %4 = alloca ptr, align 8
  %5 = alloca ptr, align 8
  %6 = alloca ptr, align 8
  %7 = alloca i32, align 4
  %8 = alloca i32, align 4
  store ptr %0, ptr %4, align 8
  store ptr %1, ptr %5, align 8
  store ptr %2, ptr %6, align 8
  %9 = load ptr, ptr %4, align 8
  %10 = load i32, ptr %9, align 4
  store i32 %10, ptr %7, align 4
  %11 = load ptr, ptr %5, align 8
  %12 = load i32, ptr %11, align 4
  store i32 %12, ptr %8, align 4
  %13 = load i32, ptr %7, align 4
  %14 = load i32, ptr %8, align 4
  %15 = icmp ugt i32 %13, %14
  %16 = zext i1 %15 to i32
  %17 = load i32, ptr %7, align 4
  %18 = load i32, ptr %8, align 4
  %19 = icmp ult i32 %17, %18
  %20 = zext i1 %19 to i32
  %21 = sub i32 %16, %20
  ret i32 %21
}