; Function Attrs: mustprogress nofree norecurse nosync nounwind willreturn memory(argmem: read) uwtable
define internal i32 @point_cmp(ptr nocapture noundef readonly %0, ptr nocapture noundef readonly %1, ptr nocapture readnone %2) #13 {
  %4 = load i32, ptr %0, align 4
  %5 = load i32, ptr %1, align 4
  %6 = icmp ugt i32 %4, %5
  %7 = zext i1 %6 to i32
  %8 = icmp ult i32 %4, %5
  %.neg = sext i1 %8 to i32
  %9 = add nsw i32 %.neg, %7
  ret i32 %9
}